; Function Attrs: mustprogress uwtable
define dso_local void @_ZN11conformance10FailureSetC2EPN6google8protobuf5ArenaE(ptr noundef nonnull align 8 dereferenceable(48) %this, ptr noundef %arena) unnamed_addr #3 align 2 personality ptr @__gxx_personality_v0 {
entry:
  %_internal_metadata_.i.i = getelementptr inbounds i8, ptr %this, i64 8
  store ptr %arena, ptr %_internal_metadata_.i.i, align 8
  store ptr getelementptr inbounds ({ [22 x ptr] }, ptr @_ZTVN11conformance10FailureSetE, i64 0, i32 0, i64 2), ptr %this, align 8
  %failure_ = getelementptr inbounds i8, ptr %this, i64 16
  tail call void @_ZN6google8protobuf16RepeatedPtrFieldINSt7__cxx1112basic_stringIcSt11char_traitsIcESaIcEEEEC1EPNS0_5ArenaE(ptr noundef nonnull align 8 dereferenceable(24) %failure_, ptr noundef %arena)
  %_cached_size_ = getelementptr inbounds i8, ptr %this, i64 40
  store i32 0, ptr %_cached_size_, align 8
  %0 = load atomic i32, ptr @scc_info_FailureSet_conformance_2fconformance_2eproto acquire, align 8
  %cmp.not.i.i = icmp eq i32 %0, 0
  br i1 %cmp.not.i.i, label %invoke.cont3, label %if.then.i.i

if.then.i.i:                                      ; preds = %entry
  invoke void @_ZN6google8protobuf8internal11InitSCCImplEPNS1_11SCCInfoBaseE(ptr noundef nonnull @scc_info_FailureSet_conformance_2fconformance_2eproto)
          to label %invoke.cont3 unwind label %lpad2

invoke.cont3:                                     ; preds = %entry, %if.then.i.i
  ret void

lpad2:                                            ; preds = %if.then.i.i
  %1 = landingpad { ptr, i32 }
          cleanup
  tail call void @_ZN6google8protobuf16RepeatedPtrFieldINSt7__cxx1112basic_stringIcSt11char_traitsIcESaIcEEEED1Ev(ptr noundef nonnull align 8 dereferenceable(24) %failure_) #21
  resume { ptr, i32 } %1
}